; ModuleID = '51/506.c'
source_filename = "51/506.c"
target datalayout = "e-m:e-p270:32:32-p271:32:32-p272:64:64-i64:64-f80:128-n8:16:32:64-S128"
target triple = "x86_64-pc-linux-gnu"

@.str = private unnamed_addr constant [3 x i8] c"%d\00", align 1
@.str.1 = private unnamed_addr constant [3 x i8] c"%s\00", align 1
@.str.2 = private unnamed_addr constant [3 x i8] c"NO\00", align 1
@.str.3 = private unnamed_addr constant [4 x i8] c"%d\0A\00", align 1
@.str.4 = private unnamed_addr constant [4 x i8] c"%s\0A\00", align 1

; Function Attrs: noinline nounwind uwtable
define dso_local i32 @main() #0 {
  %1 = alloca i32, align 4
  %2 = alloca i32, align 4
  %3 = alloca i32, align 4
  %4 = alloca i32, align 4
  %5 = alloca i32, align 4
  %6 = alloca i32, align 4
  %7 = alloca [600 x i32], align 16
  %8 = alloca i32, align 4
  %9 = alloca i32, align 4
  %10 = alloca [600 x i8], align 16
  %11 = alloca [600 x [10 x i8]], align 16
  store i32 0, i32* %1, align 4
  %12 = bitcast [600 x i8]* %10 to i8*
  call void @llvm.memset.p0i8.i64(i8* align 16 %12, i8 0, i64 600, i1 false)
  %13 = bitcast [600 x [10 x i8]]* %11 to i8*
  call void @llvm.memset.p0i8.i64(i8* align 16 %13, i8 0, i64 6000, i1 false)
  %14 = call i32 (i8*, ...) @__isoc99_scanf(i8* getelementptr inbounds ([3 x i8], [3 x i8]* @.str, i64 0, i64 0), i32* %2)
  %15 = getelementptr inbounds [600 x i8], [600 x i8]* %10, i64 0, i64 0
  %16 = call i32 (i8*, ...) @__isoc99_scanf(i8* getelementptr inbounds ([3 x i8], [3 x i8]* @.str.1, i64 0, i64 0), i8* %15)
  %17 = getelementptr inbounds [600 x i8], [600 x i8]* %10, i64 0, i64 0
  %18 = call i64 @strlen(i8* %17) #4
  %19 = trunc i64 %18 to i32
  store i32 %19, i32* %8, align 4
  store i32 0, i32* %3, align 4
  br label %20

20:                                               ; preds = %49, %0
  %21 = load i32, i32* %3, align 4
  %22 = load i32, i32* %8, align 4
  %23 = load i32, i32* %2, align 4
  %24 = sub nsw i32 %22, %23
  %25 = add nsw i32 %24, 1
  %26 = icmp slt i32 %21, %25
  br i1 %26, label %27, label %52

27:                                               ; preds = %20
  store i32 0, i32* %4, align 4
  br label %28

28:                                               ; preds = %45, %27
  %29 = load i32, i32* %4, align 4
  %30 = load i32, i32* %2, align 4
  %31 = icmp slt i32 %29, %30
  br i1 %31, label %32, label %48

32:                                               ; preds = %28
  %33 = load i32, i32* %3, align 4
  %34 = load i32, i32* %4, align 4
  %35 = add nsw i32 %33, %34
  %36 = sext i32 %35 to i64
  %37 = getelementptr inbounds [600 x i8], [600 x i8]* %10, i64 0, i64 %36
  %38 = load i8, i8* %37, align 1
  %39 = load i32, i32* %3, align 4
  %40 = sext i32 %39 to i64
  %41 = getelementptr inbounds [600 x [10 x i8]], [600 x [10 x i8]]* %11, i64 0, i64 %40
  %42 = load i32, i32* %4, align 4
  %43 = sext i32 %42 to i64
  %44 = getelementptr inbounds [10 x i8], [10 x i8]* %41, i64 0, i64 %43
  store i8 %38, i8* %44, align 1
  br label %45

45:                                               ; preds = %32
  %46 = load i32, i32* %4, align 4
  %47 = add nsw i32 %46, 1
  store i32 %47, i32* %4, align 4
  br label %28

48:                                               ; preds = %28
  br label %49

49:                                               ; preds = %48
  %50 = load i32, i32* %3, align 4
  %51 = add nsw i32 %50, 1
  store i32 %51, i32* %3, align 4
  br label %20

52:                                               ; preds = %20
  store i32 0, i32* %3, align 4
  br label %53

53:                                               ; preds = %95, %52
  %54 = load i32, i32* %3, align 4
  %55 = load i32, i32* %8, align 4
  %56 = load i32, i32* %2, align 4
  %57 = sub nsw i32 %55, %56
  %58 = icmp slt i32 %54, %57
  br i1 %58, label %59, label %98

59:                                               ; preds = %53
  %60 = load i32, i32* %3, align 4
  %61 = sext i32 %60 to i64
  %62 = getelementptr inbounds [600 x i32], [600 x i32]* %7, i64 0, i64 %61
  store i32 1, i32* %62, align 4
  %63 = load i32, i32* %3, align 4
  %64 = add nsw i32 %63, 1
  store i32 %64, i32* %4, align 4
  br label %65

65:                                               ; preds = %91, %59
  %66 = load i32, i32* %4, align 4
  %67 = load i32, i32* %8, align 4
  %68 = load i32, i32* %2, align 4
  %69 = sub nsw i32 %67, %68
  %70 = add nsw i32 %69, 1
  %71 = icmp slt i32 %66, %70
  br i1 %71, label %72, label %94

72:                                               ; preds = %65
  %73 = load i32, i32* %3, align 4
  %74 = sext i32 %73 to i64
  %75 = getelementptr inbounds [600 x [10 x i8]], [600 x [10 x i8]]* %11, i64 0, i64 %74
  %76 = getelementptr inbounds [10 x i8], [10 x i8]* %75, i64 0, i64 0
  %77 = load i32, i32* %4, align 4
  %78 = sext i32 %77 to i64
  %79 = getelementptr inbounds [600 x [10 x i8]], [600 x [10 x i8]]* %11, i64 0, i64 %78
  %80 = getelementptr inbounds [10 x i8], [10 x i8]* %79, i64 0, i64 0
  %81 = call i32 @strcmp(i8* %76, i8* %80) #4
  store i32 %81, i32* %5, align 4
  %82 = load i32, i32* %5, align 4
  %83 = icmp eq i32 %82, 0
  br i1 %83, label %84, label %90

84:                                               ; preds = %72
  %85 = load i32, i32* %3, align 4
  %86 = sext i32 %85 to i64
  %87 = getelementptr inbounds [600 x i32], [600 x i32]* %7, i64 0, i64 %86
  %88 = load i32, i32* %87, align 4
  %89 = add nsw i32 %88, 1
  store i32 %89, i32* %87, align 4
  br label %90

90:                                               ; preds = %84, %72
  br label %91

91:                                               ; preds = %90
  %92 = load i32, i32* %4, align 4
  %93 = add nsw i32 %92, 1
  store i32 %93, i32* %4, align 4
  br label %65

94:                                               ; preds = %65
  br label %95

95:                                               ; preds = %94
  %96 = load i32, i32* %3, align 4
  %97 = add nsw i32 %96, 1
  store i32 %97, i32* %3, align 4
  br label %53

98:                                               ; preds = %53
  store i32 1, i32* %6, align 4
  store i32 0, i32* %3, align 4
  br label %99

99:                                               ; preds = %118, %98
  %100 = load i32, i32* %3, align 4
  %101 = load i32, i32* %8, align 4
  %102 = load i32, i32* %2, align 4
  %103 = sub nsw i32 %101, %102
  %104 = icmp slt i32 %100, %103
  br i1 %104, label %105, label %121

105:                                              ; preds = %99
  %106 = load i32, i32* %3, align 4
  %107 = sext i32 %106 to i64
  %108 = getelementptr inbounds [600 x i32], [600 x i32]* %7, i64 0, i64 %107
  %109 = load i32, i32* %108, align 4
  %110 = load i32, i32* %6, align 4
  %111 = icmp sgt i32 %109, %110
  br i1 %111, label %112, label %117

112:                                              ; preds = %105
  %113 = load i32, i32* %3, align 4
  %114 = sext i32 %113 to i64
  %115 = getelementptr inbounds [600 x i32], [600 x i32]* %7, i64 0, i64 %114
  %116 = load i32, i32* %115, align 4
  store i32 %116, i32* %6, align 4
  br label %117

117:                                              ; preds = %112, %105
  br label %118

118:                                              ; preds = %117
  %119 = load i32, i32* %3, align 4
  %120 = add nsw i32 %119, 1
  store i32 %120, i32* %3, align 4
  br label %99

121:                                              ; preds = %99
  %122 = load i32, i32* %6, align 4
  %123 = icmp sle i32 %122, 1
  br i1 %123, label %124, label %126

124:                                              ; preds = %121
  %125 = call i32 (i8*, ...) @printf(i8* getelementptr inbounds ([3 x i8], [3 x i8]* @.str.2, i64 0, i64 0))
  br label %154

126:                                              ; preds = %121
  %127 = load i32, i32* %6, align 4
  %128 = call i32 (i8*, ...) @printf(i8* getelementptr inbounds ([4 x i8], [4 x i8]* @.str.3, i64 0, i64 0), i32 %127)
  store i32 0, i32* %3, align 4
  br label %129

129:                                              ; preds = %150, %126
  %130 = load i32, i32* %3, align 4
  %131 = load i32, i32* %8, align 4
  %132 = load i32, i32* %2, align 4
  %133 = sub nsw i32 %131, %132
  %134 = add nsw i32 %133, 1
  %135 = icmp slt i32 %130, %134
  br i1 %135, label %136, label %153

136:                                              ; preds = %129
  %137 = load i32, i32* %3, align 4
  %138 = sext i32 %137 to i64
  %139 = getelementptr inbounds [600 x i32], [600 x i32]* %7, i64 0, i64 %138
  %140 = load i32, i32* %139, align 4
  %141 = load i32, i32* %6, align 4
  %142 = icmp eq i32 %140, %141
  br i1 %142, label %143, label %149

143:                                              ; preds = %136
  %144 = load i32, i32* %3, align 4
  %145 = sext i32 %144 to i64
  %146 = getelementptr inbounds [600 x [10 x i8]], [600 x [10 x i8]]* %11, i64 0, i64 %145
  %147 = getelementptr inbounds [10 x i8], [10 x i8]* %146, i64 0, i64 0
  %148 = call i32 (i8*, ...) @printf(i8* getelementptr inbounds ([4 x i8], [4 x i8]* @.str.4, i64 0, i64 0), i8* %147)
  br label %149

149:                                              ; preds = %143, %136
  br label %150

150:                                              ; preds = %149
  %151 = load i32, i32* %3, align 4
  %152 = add nsw i32 %151, 1
  store i32 %152, i32* %3, align 4
  br label %129

153:                                              ; preds = %129
  br label %154

154:                                              ; preds = %153, %124
  ret i32 0
}

; Function Attrs: argmemonly nounwind willreturn
declare void @llvm.memset.p0i8.i64(i8* nocapture writeonly, i8, i64, i1 immarg) #1

declare dso_local i32 @__isoc99_scanf(i8*, ...) #2

; Function Attrs: nounwind readonly
declare dso_local i64 @strlen(i8*) #3

; Function Attrs: nounwind readonly
declare dso_local i32 @strcmp(i8*, i8*) #3

declare dso_local i32 @printf(i8*, ...) #2


!llvm.module.flags = !{!0}
!llvm.ident = !{!1}

!0 = !{i32 1, !"wchar_size", i32 4}
!1 = !{!"clang version 10.0.0-4ubuntu1 "}
